; ModuleID = 'source-C-CXX/27/84.c'
source_filename = "source-C-CXX/27/84.c"
target datalayout = "e-m:e-p270:32:32-p271:32:32-p272:64:64-i64:64-f80:128-n8:16:32:64-S128"
target triple = "x86_64-pc-linux-gnu"

@.str = private unnamed_addr constant [3 x i8] c"%s\00", align 1
@.str.1 = private unnamed_addr constant [3 x i8] c"%d\00", align 1
@.str.2 = private unnamed_addr constant [4 x i8] c",%d\00", align 1

; Function Attrs: nofree nounwind sspstrong uwtable
define dso_local void @main() local_unnamed_addr #0 {
  %1 = alloca [300 x [50 x i8]], align 16
  %2 = getelementptr inbounds [300 x [50 x i8]], [300 x [50 x i8]]* %1, i64 0, i64 0, i64 0
  call void @llvm.lifetime.start.p0i8(i64 15000, i8* nonnull %2) #4
  %3 = call i32 (i8*, ...) @__isoc99_scanf(i8* getelementptr inbounds ([3 x i8], [3 x i8]* @.str, i64 0, i64 0), i8* nonnull %2)
  %4 = call i64 @strlen(i8* noundef nonnull %2) #5
  %5 = call i32 (i8*, ...) @printf(i8* nonnull dereferenceable(1) getelementptr inbounds ([3 x i8], [3 x i8]* @.str.1, i64 0, i64 0), i64 %4)
  %6 = getelementptr inbounds [300 x [50 x i8]], [300 x [50 x i8]]* %1, i64 0, i64 1, i64 0
  %7 = call i32 (i8*, ...) @__isoc99_scanf(i8* getelementptr inbounds ([3 x i8], [3 x i8]* @.str, i64 0, i64 0), i8* nonnull %6)
  %8 = icmp eq i32 %7, -1
  br i1 %8, label %19, label %9

9:                                                ; preds = %0, %9
  %10 = phi i64 [ %15, %9 ], [ 1, %0 ]
  %11 = phi i8* [ %16, %9 ], [ %6, %0 ]
  %12 = call i64 @strlen(i8* noundef nonnull %11) #5
  %13 = trunc i64 %12 to i32
  %14 = call i32 (i8*, ...) @printf(i8* nonnull dereferenceable(1) getelementptr inbounds ([4 x i8], [4 x i8]* @.str.2, i64 0, i64 0), i32 %13)
  %15 = add nuw i64 %10, 1
  %16 = getelementptr inbounds [300 x [50 x i8]], [300 x [50 x i8]]* %1, i64 0, i64 %15, i64 0
  %17 = call i32 (i8*, ...) @__isoc99_scanf(i8* getelementptr inbounds ([3 x i8], [3 x i8]* @.str, i64 0, i64 0), i8* nonnull %16)
  %18 = icmp eq i32 %17, -1
  br i1 %18, label %19, label %9, !llvm.loop !5

19:                                               ; preds = %9, %0
  call void @llvm.lifetime.end.p0i8(i64 15000, i8* nonnull %2) #4
  ret void
}

; Function Attrs: argmemonly mustprogress nofree nosync nounwind willreturn
declare void @llvm.lifetime.start.p0i8(i64 immarg, i8* nocapture) #1

; Function Attrs: nofree nounwind
declare noundef i32 @__isoc99_scanf(i8* nocapture noundef readonly, ...) local_unnamed_addr #2

; Function Attrs: nofree nounwind
declare noundef i32 @printf(i8* nocapture noundef readonly, ...) local_unnamed_addr #2

; Function Attrs: argmemonly mustprogress nofree nounwind readonly willreturn
declare i64 @strlen(i8* nocapture) local_unnamed_addr #3

; Function Attrs: argmemonly mustprogress nofree nosync nounwind willreturn
declare void @llvm.lifetime.end.p0i8(i64 immarg, i8* nocapture) #1


!llvm.module.flags = !{!0, !1, !2, !3}
!llvm.ident = !{!4}

!0 = !{i32 1, !"wchar_size", i32 4}
!1 = !{i32 7, !"PIC Level", i32 2}
!2 = !{i32 7, !"PIE Level", i32 2}
!3 = !{i32 7, !"uwtable", i32 1}
!4 = !{!"clang version 13.0.0"}
!5 = distinct !{!5, !6}
!6 = !{!"llvm.loop.mustprogress"}
